target datalayout = "e-m:e-p270:32:32-p271:32:32-p272:64:64-i64:64-i128:128-f80:128-n8:16:32:64-S128"
target triple = "x86_64-pc-linux-gnu"

%struct.__storeu_pd = type { <2 x double> }

; Function Attrs: alwaysinline nounwind sspstrong uwtable
define internal void @_mm_storeu_pd(ptr noundef %0, <2 x double> noundef %1) #2 {
  %3 = alloca ptr, align 8
  %4 = alloca <2 x double>, align 16
  store ptr %0, ptr %3, align 8, !tbaa !10
  store <2 x double> %1, ptr %4, align 16, !tbaa !12
  %5 = load <2 x double>, ptr %4, align 16, !tbaa !12
  %6 = load ptr, ptr %3, align 8, !tbaa !10
  %7 = getelementptr inbounds nuw %struct.__storeu_pd, ptr %6, i32 0, i32 0
  store <2 x double> %5, ptr %7, align 1, !tbaa !12
  ret void
}

; Function Attrs: alwaysinline nounwind sspstrong uwtable
define internal <2 x double> @_mm_add_pd(<2 x double> noundef %0, <2 x double> noundef %1) #2 {
  %3 = alloca <2 x double>, align 16
  %4 = alloca <2 x double>, align 16
  store <2 x double> %0, ptr %3, align 16, !tbaa !12
  store <2 x double> %1, ptr %4, align 16, !tbaa !12
  %5 = load <2 x double>, ptr %3, align 16, !tbaa !12
  %6 = load <2 x double>, ptr %4, align 16, !tbaa !12
  %7 = fadd reassoc nsz arcp <2 x double> %5, %6
  ret <2 x double> %7
}

; Function Attrs: alwaysinline nounwind sspstrong uwtable
define internal <2 x double> @_mm_mul_pd(<2 x double> noundef %0, <2 x double> noundef %1) #2 {
  %3 = alloca <2 x double>, align 16
  %4 = alloca <2 x double>, align 16
  store <2 x double> %0, ptr %3, align 16, !tbaa !12
  store <2 x double> %1, ptr %4, align 16, !tbaa !12
  %5 = load <2 x double>, ptr %3, align 16, !tbaa !12
  %6 = load <2 x double>, ptr %4, align 16, !tbaa !12
  %7 = fmul reassoc nsz arcp <2 x double> %5, %6
  ret <2 x double> %7
}

; Function Attrs: alwaysinline nounwind sspstrong uwtable
define internal <2 x double> @_mm_set1_pd(double noundef %0) #2 {
  %2 = alloca double, align 8
  %3 = alloca <2 x double>, align 16
  store double %0, ptr %2, align 8, !tbaa !17
  %4 = load double, ptr %2, align 8, !tbaa !17
  %5 = insertelement <2 x double> poison, double %4, i32 0
  %6 = load double, ptr %2, align 8, !tbaa !17
  %7 = insertelement <2 x double> %5, double %6, i32 1
  store <2 x double> %7, ptr %3, align 16, !tbaa !12
  %8 = load <2 x double>, ptr %3, align 16, !tbaa !12
  ret <2 x double> %8
}

; Function Attrs: alwaysinline nounwind sspstrong uwtable
define internal <2 x double> @_mm_setzero_pd() #2 {
  %1 = alloca <2 x double>, align 16
  store <2 x double> zeroinitializer, ptr %1, align 16, !tbaa !12
  %2 = load <2 x double>, ptr %1, align 16, !tbaa !12
  ret <2 x double> %2
}

; Function Attrs: nounwind sspstrong uwtable
define hidden void @FLAC__lpc_compute_autocorrelation_intrin_sse2_lag_8(ptr noundef %0, i32 noundef %1, i32 noundef %2, ptr noundef %3) #0 {
  %5 = alloca ptr, align 8
  %6 = alloca i32, align 4
  %7 = alloca i32, align 4
  %8 = alloca ptr, align 8
  %9 = alloca i32, align 4
  %10 = alloca <2 x double>, align 16
  %11 = alloca <2 x double>, align 16
  %12 = alloca <2 x double>, align 16
  %13 = alloca <2 x double>, align 16
  %14 = alloca <2 x double>, align 16
  %15 = alloca <2 x double>, align 16
  %16 = alloca <2 x double>, align 16
  %17 = alloca <2 x double>, align 16
  %18 = alloca <2 x double>, align 16
  store ptr %0, ptr %5, align 8, !tbaa !3
  store i32 %1, ptr %6, align 4, !tbaa !8
  store i32 %2, ptr %7, align 4, !tbaa !8
  store ptr %3, ptr %8, align 8, !tbaa !10
  call void @llvm.lifetime.start.p0(i64 4, ptr %9) #4
  call void @llvm.lifetime.start.p0(i64 16, ptr %10) #4
  call void @llvm.lifetime.start.p0(i64 16, ptr %11) #4
  call void @llvm.lifetime.start.p0(i64 16, ptr %12) #4
  call void @llvm.lifetime.start.p0(i64 16, ptr %13) #4
  call void @llvm.lifetime.start.p0(i64 16, ptr %14) #4
  call void @llvm.lifetime.start.p0(i64 16, ptr %15) #4
  call void @llvm.lifetime.start.p0(i64 16, ptr %16) #4
  call void @llvm.lifetime.start.p0(i64 16, ptr %17) #4
  %19 = call reassoc nsz arcp <2 x double> @_mm_setzero_pd()
  store <2 x double> %19, ptr %10, align 16, !tbaa !12
  %20 = call reassoc nsz arcp <2 x double> @_mm_setzero_pd()
  store <2 x double> %20, ptr %11, align 16, !tbaa !12
  %21 = call reassoc nsz arcp <2 x double> @_mm_setzero_pd()
  store <2 x double> %21, ptr %12, align 16, !tbaa !12
  %22 = call reassoc nsz arcp <2 x double> @_mm_setzero_pd()
  store <2 x double> %22, ptr %13, align 16, !tbaa !12
  %23 = call reassoc nsz arcp <2 x double> @_mm_setzero_pd()
  store <2 x double> %23, ptr %14, align 16, !tbaa !12
  %24 = call reassoc nsz arcp <2 x double> @_mm_setzero_pd()
  store <2 x double> %24, ptr %15, align 16, !tbaa !12
  %25 = call reassoc nsz arcp <2 x double> @_mm_setzero_pd()
  store <2 x double> %25, ptr %16, align 16, !tbaa !12
  %26 = call reassoc nsz arcp <2 x double> @_mm_setzero_pd()
  store <2 x double> %26, ptr %17, align 16, !tbaa !12
  %27 = load i32, ptr %6, align 4, !tbaa !8
  %28 = sub i32 %27, 1
  store i32 %28, ptr %9, align 4, !tbaa !8
  br label %29

29:                                               ; preds = %72, %4
  %30 = load i32, ptr %9, align 4, !tbaa !8
  %31 = icmp sge i32 %30, 0
  br i1 %31, label %32, label %75

32:                                               ; preds = %29
  call void @llvm.lifetime.start.p0(i64 16, ptr %18) #4
  %33 = load ptr, ptr %5, align 8, !tbaa !3
  %34 = load i32, ptr %9, align 4, !tbaa !8
  %35 = sext i32 %34 to i64
  %36 = getelementptr inbounds float, ptr %33, i64 %35
  %37 = load float, ptr %36, align 4, !tbaa !13
  %38 = fpext reassoc nsz arcp float %37 to double
  %39 = call reassoc nsz arcp <2 x double> @_mm_set1_pd(double noundef %38)
  store <2 x double> %39, ptr %18, align 16, !tbaa !12
  %40 = load <2 x double>, ptr %16, align 16, !tbaa !12
  %41 = load <2 x double>, ptr %17, align 16, !tbaa !12
  %42 = shufflevector <2 x double> %40, <2 x double> %41, <2 x i32> <i32 1, i32 2>
  store <2 x double> %42, ptr %17, align 16, !tbaa !12
  %43 = load <2 x double>, ptr %15, align 16, !tbaa !12
  %44 = load <2 x double>, ptr %16, align 16, !tbaa !12
  %45 = shufflevector <2 x double> %43, <2 x double> %44, <2 x i32> <i32 1, i32 2>
  store <2 x double> %45, ptr %16, align 16, !tbaa !12
  %46 = load <2 x double>, ptr %14, align 16, !tbaa !12
  %47 = load <2 x double>, ptr %15, align 16, !tbaa !12
  %48 = shufflevector <2 x double> %46, <2 x double> %47, <2 x i32> <i32 1, i32 2>
  store <2 x double> %48, ptr %15, align 16, !tbaa !12
  %49 = load <2 x double>, ptr %18, align 16, !tbaa !12
  %50 = load <2 x double>, ptr %14, align 16, !tbaa !12
  %51 = shufflevector <2 x double> %49, <2 x double> %50, <2 x i32> <i32 1, i32 2>
  store <2 x double> %51, ptr %14, align 16, !tbaa !12
  %52 = load <2 x double>, ptr %10, align 16, !tbaa !12
  %53 = load <2 x double>, ptr %18, align 16, !tbaa !12
  %54 = load <2 x double>, ptr %14, align 16, !tbaa !12
  %55 = call reassoc nsz arcp <2 x double> @_mm_mul_pd(<2 x double> noundef %53, <2 x double> noundef %54)
  %56 = call reassoc nsz arcp <2 x double> @_mm_add_pd(<2 x double> noundef %52, <2 x double> noundef %55)
  store <2 x double> %56, ptr %10, align 16, !tbaa !12
  %57 = load <2 x double>, ptr %11, align 16, !tbaa !12
  %58 = load <2 x double>, ptr %18, align 16, !tbaa !12
  %59 = load <2 x double>, ptr %15, align 16, !tbaa !12
  %60 = call reassoc nsz arcp <2 x double> @_mm_mul_pd(<2 x double> noundef %58, <2 x double> noundef %59)
  %61 = call reassoc nsz arcp <2 x double> @_mm_add_pd(<2 x double> noundef %57, <2 x double> noundef %60)
  store <2 x double> %61, ptr %11, align 16, !tbaa !12
  %62 = load <2 x double>, ptr %12, align 16, !tbaa !12
  %63 = load <2 x double>, ptr %18, align 16, !tbaa !12
  %64 = load <2 x double>, ptr %16, align 16, !tbaa !12
  %65 = call reassoc nsz arcp <2 x double> @_mm_mul_pd(<2 x double> noundef %63, <2 x double> noundef %64)
  %66 = call reassoc nsz arcp <2 x double> @_mm_add_pd(<2 x double> noundef %62, <2 x double> noundef %65)
  store <2 x double> %66, ptr %12, align 16, !tbaa !12
  %67 = load <2 x double>, ptr %13, align 16, !tbaa !12
  %68 = load <2 x double>, ptr %18, align 16, !tbaa !12
  %69 = load <2 x double>, ptr %17, align 16, !tbaa !12
  %70 = call reassoc nsz arcp <2 x double> @_mm_mul_pd(<2 x double> noundef %68, <2 x double> noundef %69)
  %71 = call reassoc nsz arcp <2 x double> @_mm_add_pd(<2 x double> noundef %67, <2 x double> noundef %70)
  store <2 x double> %71, ptr %13, align 16, !tbaa !12
  call void @llvm.lifetime.end.p0(i64 16, ptr %18) #4
  br label %72

72:                                               ; preds = %32
  %73 = load i32, ptr %9, align 4, !tbaa !8
  %74 = add nsw i32 %73, -1
  store i32 %74, ptr %9, align 4, !tbaa !8
  br label %29, !llvm.loop !15

75:                                               ; preds = %29
  %76 = load ptr, ptr %8, align 8, !tbaa !10
  %77 = load <2 x double>, ptr %10, align 16, !tbaa !12
  call void @_mm_storeu_pd(ptr noundef %76, <2 x double> noundef %77)
  %78 = load ptr, ptr %8, align 8, !tbaa !10
  %79 = getelementptr inbounds double, ptr %78, i64 2
  %80 = load <2 x double>, ptr %11, align 16, !tbaa !12
  call void @_mm_storeu_pd(ptr noundef %79, <2 x double> noundef %80)
  %81 = load ptr, ptr %8, align 8, !tbaa !10
  %82 = getelementptr inbounds double, ptr %81, i64 4
  %83 = load <2 x double>, ptr %12, align 16, !tbaa !12
  call void @_mm_storeu_pd(ptr noundef %82, <2 x double> noundef %83)
  %84 = load ptr, ptr %8, align 8, !tbaa !10
  %85 = getelementptr inbounds double, ptr %84, i64 6
  %86 = load <2 x double>, ptr %13, align 16, !tbaa !12
  call void @_mm_storeu_pd(ptr noundef %85, <2 x double> noundef %86)
  call void @llvm.lifetime.end.p0(i64 16, ptr %17) #4
  call void @llvm.lifetime.end.p0(i64 16, ptr %16) #4
  call void @llvm.lifetime.end.p0(i64 16, ptr %15) #4
  call void @llvm.lifetime.end.p0(i64 16, ptr %14) #4
  call void @llvm.lifetime.end.p0(i64 16, ptr %13) #4
  call void @llvm.lifetime.end.p0(i64 16, ptr %12) #4
  call void @llvm.lifetime.end.p0(i64 16, ptr %11) #4
  call void @llvm.lifetime.end.p0(i64 16, ptr %10) #4
  call void @llvm.lifetime.end.p0(i64 4, ptr %9) #4
  ret void
}