; Function Attrs: nofree norecurse nosync nounwind sspstrong memory(argmem: readwrite) uwtable
define hidden void @FLAC__lpc_compute_autocorrelation_intrin_sse2_lag_8(ptr noundef readonly captures(none) %0, i32 noundef %1, i32 noundef %2, ptr noundef writeonly captures(none) %3) local_unnamed_addr #0 {
  %.040 = add i32 %1, -1
  %5 = icmp sgt i32 %.040, -1
  br i1 %5, label %.lr.ph.preheader, label %._crit_edge

.lr.ph.preheader:                                 ; preds = %4
  %6 = zext nneg i32 %.040 to i64
  br label %.lr.ph

.lr.ph:                                           ; preds = %.lr.ph.preheader, %.lr.ph
  %indvars.iv = phi i64 [ %6, %.lr.ph.preheader ], [ %indvars.iv.next, %.lr.ph ]
  %.03248 = phi <2 x double> [ zeroinitializer, %.lr.ph.preheader ], [ %12, %.lr.ph ]
  %.03347 = phi <2 x double> [ zeroinitializer, %.lr.ph.preheader ], [ %13, %.lr.ph ]
  %.03446 = phi <2 x double> [ zeroinitializer, %.lr.ph.preheader ], [ %14, %.lr.ph ]
  %.03545 = phi <2 x double> [ zeroinitializer, %.lr.ph.preheader ], [ %15, %.lr.ph ]
  %.03644 = phi <2 x double> [ zeroinitializer, %.lr.ph.preheader ], [ %23, %.lr.ph ]
  %.03743 = phi <2 x double> [ zeroinitializer, %.lr.ph.preheader ], [ %21, %.lr.ph ]
  %.03842 = phi <2 x double> [ zeroinitializer, %.lr.ph.preheader ], [ %19, %.lr.ph ]
  %.03941 = phi <2 x double> [ zeroinitializer, %.lr.ph.preheader ], [ %17, %.lr.ph ]
  %7 = getelementptr inbounds nuw float, ptr %0, i64 %indvars.iv
  %8 = load float, ptr %7, align 4, !tbaa !3
  %9 = fpext reassoc nsz arcp float %8 to double
  %10 = insertelement <2 x double> poison, double %9, i64 0
  %11 = shufflevector <2 x double> %10, <2 x double> poison, <2 x i32> zeroinitializer
  %12 = shufflevector <2 x double> %.03347, <2 x double> %.03248, <2 x i32> <i32 1, i32 2>
  %13 = shufflevector <2 x double> %.03446, <2 x double> %.03347, <2 x i32> <i32 1, i32 2>
  %14 = shufflevector <2 x double> %.03545, <2 x double> %.03446, <2 x i32> <i32 1, i32 2>
  %15 = shufflevector <2 x double> %10, <2 x double> %.03545, <2 x i32> <i32 0, i32 2>
  %16 = fmul reassoc nsz arcp <2 x double> %15, %11
  %17 = fadd reassoc nsz arcp <2 x double> %16, %.03941
  %18 = fmul reassoc nsz arcp <2 x double> %11, %14
  %19 = fadd reassoc nsz arcp <2 x double> %18, %.03842
  %20 = fmul reassoc nsz arcp <2 x double> %11, %13
  %21 = fadd reassoc nsz arcp <2 x double> %20, %.03743
  %22 = fmul reassoc nsz arcp <2 x double> %11, %12
  %23 = fadd reassoc nsz arcp <2 x double> %22, %.03644
  %indvars.iv.next = add nsw i64 %indvars.iv, -1
  %.not = icmp eq i64 %indvars.iv, 0
  br i1 %.not, label %._crit_edge, label %.lr.ph, !llvm.loop !7

._crit_edge:                                      ; preds = %.lr.ph, %4
  %.039.lcssa = phi <2 x double> [ zeroinitializer, %4 ], [ %17, %.lr.ph ]
  %.038.lcssa = phi <2 x double> [ zeroinitializer, %4 ], [ %19, %.lr.ph ]
  %.037.lcssa = phi <2 x double> [ zeroinitializer, %4 ], [ %21, %.lr.ph ]
  %.036.lcssa = phi <2 x double> [ zeroinitializer, %4 ], [ %23, %.lr.ph ]
  store <2 x double> %.039.lcssa, ptr %3, align 1, !tbaa !9
  %24 = getelementptr inbounds nuw i8, ptr %3, i64 16
  store <2 x double> %.038.lcssa, ptr %24, align 1, !tbaa !9
  %25 = getelementptr inbounds nuw i8, ptr %3, i64 32
  store <2 x double> %.037.lcssa, ptr %25, align 1, !tbaa !9
  %26 = getelementptr inbounds nuw i8, ptr %3, i64 48
  store <2 x double> %.036.lcssa, ptr %26, align 1, !tbaa !9
  ret void
}